target datalayout = "e-m:e-p270:32:32-p271:32:32-p272:64:64-i64:64-i128:128-f80:128-n8:16:32:64-S128"
target triple = "x86_64-pc-linux-gnu"

%struct.FunctionCallInfoBaseData = type { ptr, ptr, ptr, i32, i8, i16, [0 x %struct.NullableDatum] }
%struct.NullableDatum = type { i64, i8 }

@ttoff = internal global i8 0, align 1

; Function Attrs: inlinehint nounwind uwtable
define internal i64 @Int32GetDatum(i32 noundef %0) #2 {
  %2 = alloca i32, align 4
  store i32 %0, ptr %2, align 4
  %3 = load i32, ptr %2, align 4
  %4 = sext i32 %3 to i64
  ret i64 %4
}

; Function Attrs: inlinehint nounwind uwtable
define internal i32 @DatumGetInt32(i64 noundef %0) #2 {
  %2 = alloca i64, align 8
  store i64 %0, ptr %2, align 8
  %3 = load i64, ptr %2, align 8
  %4 = trunc i64 %3 to i32
  ret i32 %4
}

; Function Attrs: nounwind uwtable
define i64 @set_ttdummy(ptr noundef %0) #0 {
  %2 = alloca i64, align 8
  %3 = alloca ptr, align 8
  %4 = alloca i32, align 4
  %5 = alloca i32, align 4
  store ptr %0, ptr %3, align 8
  call void @llvm.lifetime.start.p0(i64 4, ptr %4) #13
  %6 = load ptr, ptr %3, align 8
  %7 = getelementptr inbounds nuw %struct.FunctionCallInfoBaseData, ptr %6, i32 0, i32 6
  %8 = getelementptr inbounds [0 x %struct.NullableDatum], ptr %7, i64 0, i64 0
  %9 = getelementptr inbounds nuw %struct.NullableDatum, ptr %8, i32 0, i32 0
  %10 = load i64, ptr %9, align 8
  %11 = call i32 @DatumGetInt32(i64 noundef %10)
  store i32 %11, ptr %4, align 4
  %12 = load i8, ptr @ttoff, align 1, !range !3, !noundef !4
  %13 = trunc i8 %12 to i1
  br i1 %13, label %14, label %21

14:                                               ; preds = %1
  %15 = load i32, ptr %4, align 4
  %16 = icmp eq i32 %15, 0
  br i1 %16, label %17, label %19

17:                                               ; preds = %14
  %18 = call i64 @Int32GetDatum(i32 noundef 0)
  store i64 %18, ptr %2, align 8
  store i32 1, ptr %5, align 4
  br label %28

19:                                               ; preds = %14
  store i8 0, ptr @ttoff, align 1
  %20 = call i64 @Int32GetDatum(i32 noundef 0)
  store i64 %20, ptr %2, align 8
  store i32 1, ptr %5, align 4
  br label %28

21:                                               ; preds = %1
  %22 = load i32, ptr %4, align 4
  %23 = icmp ne i32 %22, 0
  br i1 %23, label %24, label %26

24:                                               ; preds = %21
  %25 = call i64 @Int32GetDatum(i32 noundef 1)
  store i64 %25, ptr %2, align 8
  store i32 1, ptr %5, align 4
  br label %28

26:                                               ; preds = %21
  store i8 1, ptr @ttoff, align 1
  %27 = call i64 @Int32GetDatum(i32 noundef 1)
  store i64 %27, ptr %2, align 8
  store i32 1, ptr %5, align 4
  br label %28

28:                                               ; preds = %26, %24, %19, %17
  call void @llvm.lifetime.end.p0(i64 4, ptr %4) #13
  %29 = load i64, ptr %2, align 8
  ret i64 %29
}