; Function Attrs: mustprogress nofree norecurse nosync nounwind willreturn memory(readwrite, argmem: read, inaccessiblemem: none) uwtable
define range(i64 0, 2) i64 @set_ttdummy(ptr noundef readonly captures(none) %0) local_unnamed_addr #6 {
  %2 = getelementptr inbounds nuw i8, ptr %0, i64 32
  %3 = load i64, ptr %2, align 8
  %.b3 = load i1, ptr @ttoff, align 1
  %4 = and i64 %3, 4294967295
  %5 = icmp eq i64 %4, 0
  br i1 %.b3, label %6, label %7

6:                                                ; preds = %1
  br i1 %5, label %8, label %.sink.split

7:                                                ; preds = %1
  br i1 %5, label %.sink.split, label %8

.sink.split:                                      ; preds = %7, %6
  %.0.ph = phi i64 [ 0, %6 ], [ 1, %7 ]
  %.sink = xor i1 %.b3, true
  store i1 %.sink, ptr @ttoff, align 1
  br label %8

8:                                                ; preds = %.sink.split, %7, %6
  %.0 = phi i64 [ 0, %6 ], [ 1, %7 ], [ %.0.ph, %.sink.split ]
  ret i64 %.0
}